target datalayout = "e-m:e-p270:32:32-p271:32:32-p272:64:64-i64:64-i128:128-f80:128-n8:16:32:64-S128"
target triple = "x86_64-unknown-linux-gnu"

; Function Attrs: mustprogress nounwind uwtable
define linkonce_odr noundef ptr @_ZN6icu_7511Formattable16fromUFormattableEPPv(ptr noundef %fmt) #1 comdat align 2 {
entry:
  %fmt.addr = alloca ptr, align 8
  store ptr %fmt, ptr %fmt.addr, align 8
  %0 = load ptr, ptr %fmt.addr, align 8
  ret ptr %0
}

; Function Attrs: mustprogress nounwind uwtable
define internal noundef signext i8 @_ZL9U_FAILURE10UErrorCode(i32 noundef %code) #1 {
entry:
  %code.addr = alloca i32, align 4
  store i32 %code, ptr %code.addr, align 4
  %0 = load i32, ptr %code.addr, align 4
  %cmp = icmp sgt i32 %0, 0
  %conv = zext i1 %cmp to i8
  ret i8 %conv
}

; Function Attrs: mustprogress uwtable
define ptr @unum_parseToUFormattable_75(ptr noundef %fmt, ptr noundef %result, ptr noundef %text, i32 noundef %textLength, ptr noundef %parsePos, ptr noundef %status) #0 {
entry:
  %retval = alloca ptr, align 8
  %fmt.addr = alloca ptr, align 8
  %result.addr = alloca ptr, align 8
  %text.addr = alloca ptr, align 8
  %textLength.addr = alloca i32, align 4
  %parsePos.addr = alloca ptr, align 8
  %status.addr = alloca ptr, align 8
  %newFormattable = alloca ptr, align 8
  store ptr %fmt, ptr %fmt.addr, align 8
  store ptr %result, ptr %result.addr, align 8
  store ptr %text, ptr %text.addr, align 8
  store i32 %textLength, ptr %textLength.addr, align 4
  store ptr %parsePos, ptr %parsePos.addr, align 8
  store ptr %status, ptr %status.addr, align 8
  store ptr null, ptr %newFormattable, align 8
  %0 = load ptr, ptr %status.addr, align 8
  %1 = load i32, ptr %0, align 4
  %call = call noundef signext i8 @_ZL9U_FAILURE10UErrorCode(i32 noundef %1)
  %tobool = icmp ne i8 %call, 0
  br i1 %tobool, label %if.then, label %if.end

if.then:                                          ; preds = %entry
  %2 = load ptr, ptr %result.addr, align 8
  store ptr %2, ptr %retval, align 8
  br label %return

if.end:                                           ; preds = %entry
  %3 = load ptr, ptr %fmt.addr, align 8
  %cmp = icmp eq ptr %3, null
  br i1 %cmp, label %if.then3, label %lor.lhs.false

lor.lhs.false:                                    ; preds = %if.end
  %4 = load ptr, ptr %text.addr, align 8
  %cmp1 = icmp eq ptr %4, null
  br i1 %cmp1, label %land.lhs.true, label %if.end4

land.lhs.true:                                    ; preds = %lor.lhs.false
  %5 = load i32, ptr %textLength.addr, align 4
  %cmp2 = icmp ne i32 %5, 0
  br i1 %cmp2, label %if.then3, label %if.end4

if.then3:                                         ; preds = %land.lhs.true, %if.end
  %6 = load ptr, ptr %status.addr, align 8
  store i32 1, ptr %6, align 4
  %7 = load ptr, ptr %result.addr, align 8
  store ptr %7, ptr %retval, align 8
  br label %return

if.end4:                                          ; preds = %land.lhs.true, %lor.lhs.false
  %8 = load ptr, ptr %result.addr, align 8
  %cmp5 = icmp eq ptr %8, null
  br i1 %cmp5, label %if.then6, label %if.end8

if.then6:                                         ; preds = %if.end4
  %9 = load ptr, ptr %status.addr, align 8
  %call7 = call ptr @ufmt_open_75(ptr noundef %9)
  store ptr %call7, ptr %result.addr, align 8
  store ptr %call7, ptr %newFormattable, align 8
  br label %if.end8

if.end8:                                          ; preds = %if.then6, %if.end4
  %10 = load ptr, ptr %result.addr, align 8
  %call9 = call noundef ptr @_ZN6icu_7511Formattable16fromUFormattableEPPv(ptr noundef %10)
  %11 = load ptr, ptr %fmt.addr, align 8
  %12 = load ptr, ptr %text.addr, align 8
  %13 = load i32, ptr %textLength.addr, align 4
  %14 = load ptr, ptr %parsePos.addr, align 8
  %15 = load ptr, ptr %status.addr, align 8
  call void @_ZL8parseResRN6icu_7511FormattableEPKPvPKDsiPiP10UErrorCode(ptr noundef nonnull align 8 dereferenceable(112) %call9, ptr noundef %11, ptr noundef %12, i32 noundef %13, ptr noundef %14, ptr noundef %15)
  %16 = load ptr, ptr %status.addr, align 8
  %17 = load i32, ptr %16, align 4
  %call10 = call noundef signext i8 @_ZL9U_FAILURE10UErrorCode(i32 noundef %17)
  %tobool11 = icmp ne i8 %call10, 0
  br i1 %tobool11, label %land.lhs.true12, label %if.end15

land.lhs.true12:                                  ; preds = %if.end8
  %18 = load ptr, ptr %newFormattable, align 8
  %cmp13 = icmp ne ptr %18, null
  br i1 %cmp13, label %if.then14, label %if.end15

if.then14:                                        ; preds = %land.lhs.true12
  %19 = load ptr, ptr %newFormattable, align 8
  call void @ufmt_close_75(ptr noundef %19)
  store ptr null, ptr %result.addr, align 8
  br label %if.end15

if.end15:                                         ; preds = %if.then14, %land.lhs.true12, %if.end8
  %20 = load ptr, ptr %result.addr, align 8
  store ptr %20, ptr %retval, align 8
  br label %return

return:                                           ; preds = %if.end15, %if.then3, %if.then
  %21 = load ptr, ptr %retval, align 8
  ret ptr %21
}