; Function Attrs: mustprogress uwtable
define noundef ptr @unum_parseToUFormattable_75(ptr noundef %fmt, ptr noundef %result, ptr noundef %text, i32 noundef %textLength, ptr noundef %parsePos, ptr noundef %status) local_unnamed_addr #0 {
entry:
  %0 = load i32, ptr %status, align 4
  %cmp.i = icmp slt i32 %0, 1
  br i1 %cmp.i, label %if.end, label %return

if.end:                                           ; preds = %entry
  %cmp = icmp eq ptr %fmt, null
  br i1 %cmp, label %if.then3, label %lor.lhs.false

lor.lhs.false:                                    ; preds = %if.end
  %cmp1 = icmp eq ptr %text, null
  %cmp2 = icmp ne i32 %textLength, 0
  %or.cond = and i1 %cmp1, %cmp2
  br i1 %or.cond, label %if.then3, label %if.end4

if.then3:                                         ; preds = %lor.lhs.false, %if.end
  store i32 1, ptr %status, align 4
  br label %return

if.end4:                                          ; preds = %lor.lhs.false
  %cmp5 = icmp eq ptr %result, null
  br i1 %cmp5, label %if.then6, label %if.end8

if.then6:                                         ; preds = %if.end4
  %call7 = tail call ptr @ufmt_open_75(ptr noundef nonnull %status)
  br label %if.end8

if.end8:                                          ; preds = %if.then6, %if.end4
  %result.addr.0 = phi ptr [ %call7, %if.then6 ], [ %result, %if.end4 ]
  %newFormattable.0 = phi ptr [ %call7, %if.then6 ], [ null, %if.end4 ]
  tail call fastcc void @_ZL8parseResRN6icu_7511FormattableEPKPvPKDsiPiP10UErrorCode(ptr noundef nonnull align 8 dereferenceable(112) %result.addr.0, ptr noundef nonnull %fmt, ptr noundef %text, i32 noundef %textLength, ptr noundef %parsePos, ptr noundef nonnull %status)
  %1 = load i32, ptr %status, align 4
  %cmp.i14 = icmp sgt i32 %1, 0
  %cmp13 = icmp ne ptr %newFormattable.0, null
  %or.cond1 = select i1 %cmp.i14, i1 %cmp13, i1 false
  br i1 %or.cond1, label %if.then14, label %return

if.then14:                                        ; preds = %if.end8
  tail call void @ufmt_close_75(ptr noundef nonnull %newFormattable.0)
  br label %return

return:                                           ; preds = %if.end8, %if.then14, %entry, %if.then3
  %retval.0 = phi ptr [ %result, %if.then3 ], [ %result, %entry ], [ null, %if.then14 ], [ %result.addr.0, %if.end8 ]
  ret ptr %retval.0
}